CCS PCM C Compiler, Version 4.074, 22034               09-Jun-22 15:15

               Filename: week_12.lst

               ROM used: 153 words (2%)
                         Largest free fragment is 2048
               RAM used: 11 (3%) at main() level
                         12 (3%) worst case
               Stack:    1 locations

*
0000:  MOVLW  00
0001:  MOVWF  0A
0002:  GOTO   029
0003:  NOP
.................... #include <16f887.h>  
.................... //////// Standard Header file for the PIC16F887 device //////////////// 
.................... #device PIC16F887 
.................... #list 
....................  
.................... #device *=16 ADC=8 // Khai bao during con tro 16-bt  
.................... #FUSES NOWDT, HS, NOPUT, NOBROWNOUT,NOPROTECT, NOLVP  
.................... #use delay(clock=8000000) // Khai bao su ðung Thach Anh 8 - Mhz 
*
0013:  MOVLW  25
0014:  MOVWF  04
0015:  BCF    03.7
0016:  MOVF   00,W
0017:  BTFSC  03.2
0018:  GOTO   026
0019:  MOVLW  02
001A:  MOVWF  78
001B:  CLRF   77
001C:  DECFSZ 77,F
001D:  GOTO   01C
001E:  DECFSZ 78,F
001F:  GOTO   01B
0020:  MOVLW  97
0021:  MOVWF  77
0022:  DECFSZ 77,F
0023:  GOTO   022
0024:  DECFSZ 00,F
0025:  GOTO   019
0026:  BCF    0A.3
0027:  BCF    0A.4
0028:  GOTO   08F (RETURN)
....................  
.................... int i,k,h; 
.................... const char led7[] = {0x3f,0x3f, 0x06, 0x5b, 0x4f,0x66,0x6d, 0x7d, 0x07,0x7f,0x6f}; 
.................... void main() 
.................... { 
0029:  CLRF   04
002A:  BCF    03.7
002B:  MOVLW  1F
002C:  ANDWF  03,F
002D:  BSF    03.5
002E:  BSF    03.6
002F:  MOVF   09,W
0030:  ANDLW  C0
0031:  MOVWF  09
0032:  BCF    03.6
0033:  BCF    1F.4
0034:  BCF    1F.5
0035:  MOVLW  00
0036:  BSF    03.6
0037:  MOVWF  08
0038:  BCF    03.5
0039:  CLRF   07
003A:  CLRF   08
003B:  CLRF   09
.................... set_tris_a(0x00); 
*
003F:  MOVLW  00
0040:  BSF    03.5
0041:  MOVWF  05
.................... set_tris_b(0x00);  
0042:  MOVWF  06
.................... set_tris_c(0x00); 
0043:  MOVWF  07
0044:  BCF    03.5
0045:  MOVWF  23
.................... set_tris_d(0x00);  
0046:  BSF    03.5
0047:  MOVWF  08
....................  
.................... output_a(0x08);  
0048:  CLRF   05
0049:  MOVLW  08
004A:  BCF    03.5
004B:  MOVWF  05
.................... output_low(pin_a5); 
004C:  BSF    03.5
004D:  BCF    05.5
004E:  BCF    03.5
004F:  BCF    05.5
.................... output_low(pin_a6); 
0050:  BSF    03.5
0051:  BCF    05.6
0052:  BCF    03.5
0053:  BCF    05.6
.................... output_low(pin_a7); 
0054:  BSF    03.5
0055:  BCF    05.7
0056:  BCF    03.5
0057:  BCF    05.7
.................... while(TRUE) 
.................... { 
....................  
.................... for(i=10;i >= 1;i--) 
0058:  MOVLW  0A
0059:  MOVWF  20
005A:  MOVF   20,W
005B:  SUBLW  00
005C:  BTFSC  03.0
005D:  GOTO   097
.................... { 
.................... output_b(~led7[i]); 
005E:  MOVF   20,W
005F:  CALL   004
0060:  MOVWF  78
0061:  MOVWF  24
0062:  COMF   24,F
0063:  BSF    03.5
0064:  CLRF   06
0065:  BCF    03.5
0066:  MOVF   24,W
0067:  MOVWF  06
.................... for(k=10;k >= 1;k--) 
0068:  MOVLW  0A
0069:  MOVWF  21
006A:  MOVF   21,W
006B:  SUBLW  00
006C:  BTFSC  03.0
006D:  GOTO   095
.................... { 
.................... output_d(~led7[k]); 
006E:  MOVF   21,W
006F:  CALL   004
0070:  MOVWF  78
0071:  MOVWF  24
0072:  COMF   24,F
0073:  BSF    03.5
0074:  CLRF   08
0075:  BCF    03.5
0076:  MOVF   24,W
0077:  MOVWF  08
.................... for(h=10;h >= 1;h--) 
0078:  MOVLW  0A
0079:  MOVWF  22
007A:  MOVF   22,W
007B:  SUBLW  00
007C:  BTFSC  03.0
007D:  GOTO   093
.................... { 
.................... output_c(~led7[h]); 
007E:  MOVF   22,W
007F:  CALL   004
0080:  MOVWF  78
0081:  MOVWF  24
0082:  COMF   24,F
0083:  MOVLW  00
0084:  MOVWF  23
0085:  BSF    03.5
0086:  CLRF   07
0087:  BCF    03.5
0088:  MOVF   24,W
0089:  MOVWF  07
.................... delay_ms(500); 
008A:  MOVLW  02
008B:  MOVWF  24
008C:  MOVLW  FA
008D:  MOVWF  25
008E:  GOTO   013
008F:  DECFSZ 24,F
0090:  GOTO   08C
....................  
.................... } 
0091:  DECF   22,F
0092:  GOTO   07A
.................... } 
0093:  DECF   21,F
0094:  GOTO   06A
.................... } 
0095:  DECF   20,F
0096:  GOTO   05A
....................  
....................  
.................... } 
0097:  GOTO   058
.................... } 
0098:  SLEEP

Configuration Fuses:
   Word  1: 2CF2   HS NOWDT NOPUT MCLR NOPROTECT NOCPD NOBROWNOUT IESO FCMEN NOLVP NODEBUG
   Word  2: 3FFF   NOWRT BORV40
